; Function Attrs: mustprogress uwtable
define void @_ZN3zmq12udp_engine_tC2ERKNS_9options_tE(ptr noundef nonnull align 8 dereferenceable(17880) %0, ptr noundef nonnull align 8 dereferenceable(1336) %1) unnamed_addr #0 align 2 personality ptr @__gxx_personality_v0 {
  tail call void @_ZN3zmq11io_object_tC2EPNS_11io_thread_tE(ptr noundef nonnull align 8 dereferenceable(16) %0, ptr noundef null)
  %3 = getelementptr inbounds nuw i8, ptr %0, i64 16
  store ptr getelementptr inbounds nuw inrange(-16, 96) (i8, ptr @_ZTVN3zmq12udp_engine_tE, i64 16), ptr %0, align 8, !tbaa !3
  store ptr getelementptr inbounds nuw inrange(-16, 72) (i8, ptr @_ZTVN3zmq12udp_engine_tE, i64 128), ptr %3, align 8, !tbaa !3
  %4 = getelementptr inbounds nuw i8, ptr %0, i64 24
  %5 = getelementptr inbounds nuw i8, ptr %0, i64 40
  store ptr %5, ptr %4, align 8, !tbaa !6
  %6 = getelementptr inbounds nuw i8, ptr %0, i64 32
  store i64 0, ptr %6, align 8, !tbaa !11
  store i8 0, ptr %5, align 8, !tbaa !14
  %7 = getelementptr inbounds nuw i8, ptr %0, i64 56
  %8 = getelementptr inbounds nuw i8, ptr %0, i64 72
  store ptr %8, ptr %7, align 8, !tbaa !6
  %9 = getelementptr inbounds nuw i8, ptr %0, i64 64
  store i64 0, ptr %9, align 8, !tbaa !11
  store i8 0, ptr %8, align 8, !tbaa !14
  %10 = getelementptr inbounds nuw i8, ptr %0, i64 88
  store i32 0, ptr %10, align 8, !tbaa !15
  %11 = getelementptr inbounds nuw i8, ptr %0, i64 96
  store i8 0, ptr %11, align 8, !tbaa !18
  %12 = getelementptr inbounds nuw i8, ptr %0, i64 100
  store i32 -1, ptr %12, align 4, !tbaa !64
  %13 = getelementptr inbounds nuw i8, ptr %0, i64 104
  %14 = getelementptr inbounds nuw i8, ptr %0, i64 128
  tail call void @llvm.memset.p0.i64(ptr noundef nonnull align 8 dereferenceable(24) %13, i8 0, i64 24, i1 false)
  invoke void @_ZN3zmq9options_tC2ERKS0_(ptr noundef nonnull align 8 dereferenceable(1336) %14, ptr noundef nonnull align 8 dereferenceable(1336) %1)
          to label %15 unwind label %18

15:                                               ; preds = %2
  %16 = getelementptr inbounds nuw i8, ptr %0, i64 17876
  store i8 0, ptr %16, align 4, !tbaa !65
  %17 = getelementptr inbounds nuw i8, ptr %0, i64 17877
  store i8 0, ptr %17, align 1, !tbaa !66
  ret void

18:                                               ; preds = %2
  %19 = landingpad { ptr, i32 }
          cleanup
  tail call void @_ZN3zmq19endpoint_uri_pair_tD2Ev(ptr noundef nonnull align 8 dereferenceable(68) %4) #23
  tail call void @_ZN3zmq11io_object_tD2Ev(ptr noundef nonnull align 8 dereferenceable(16) %0) #23
  resume { ptr, i32 } %19
}